EXPORTS
    _ZN2sf11VertexArrayC1ERKS0_ @1
    _ZN2sf11VertexArrayD1Ev @2
    _ZN2sf13TransformableC2ERKS0_ @3
    _ZN2sf13TransformableaSERKS0_ @4
    _ZN2sf15ContextSettingsC1Ejjjjjjb @5
    _ZN2sf4RectIiEC1Eiiii @6
    _ZN2sf4RectIiEC1Ev @7
    _ZN2sf4TextC1ERKS0_ @8
    _ZN2sf4TextD1Ev @9
    _ZN2sf6SpriteC1ERKS0_ @10
    _ZN2sf6SpriteD1Ev @11
    _ZN2sf6SpriteaSEOS0_ @12
    _ZN2sf6StringD1Ev @13
    _ZN2sf7Vector2IfEC1Eff @14
    _ZN2sf8DrawableC2ERKS0_ @15
    _ZN2sf8DrawableD2Ev @16
    _ZN2sf8DrawableaSERKS0_ @17
    _ZN6GrilleC1Ev @18
    _ZN6GrilleC2Ev @19
    _ZN8TepeGolo10PauseState11GererEntrerEv @20
    _ZN8TepeGolo10PauseState4InitEv @21
    _ZN8TepeGolo10PauseState6UpdateEf @22
    _ZN8TepeGolo10PauseState8DessinerEf @23
    _ZN8TepeGolo10PauseStateC1ESt10shared_ptrINS_8GameDataEENS_9GameStateE @24
    _ZN8TepeGolo10PauseStateC2ESt10shared_ptrINS_8GameDataEENS_9GameStateE @25
    _ZN8TepeGolo11EtatMachine10RetireEtatEv @26
    _ZN8TepeGolo11EtatMachine13GetActiveEtatEv @27
    _ZN8TepeGolo11EtatMachine17ProcessEtatChangeEv @28
    _ZN8TepeGolo11EtatMachine9AjoutEtatESt10unique_ptrINS_4EtatESt14default_deleteIS2_EEb @29
    _ZN8TepeGolo11EtatMachineC1Ev @30
    _ZN8TepeGolo11EtatMachineD1Ev @31
    _ZN8TepeGolo11SplashState11GererEntrerEv @32
    _ZN8TepeGolo11SplashState4InitEv @33
    _ZN8TepeGolo11SplashState6UpdateEf @34
    _ZN8TepeGolo11SplashState8DessinerEf @35
    _ZN8TepeGolo11SplashStateC1ESt10shared_ptrINS_8GameDataEE @36
    _ZN8TepeGolo11SplashStateC2ESt10shared_ptrINS_8GameDataEE @37
    _ZN8TepeGolo12AssetManager10GetTextureENSt7__cxx1112basic_stringIcSt11char_traitsIcESaIcEEE @38
    _ZN8TepeGolo12AssetManager11LoadTextureENSt7__cxx1112basic_stringIcSt11char_traitsIcESaIcEEES6_ @39
    _ZN8TepeGolo12AssetManager7GetFontENSt7__cxx1112basic_stringIcSt11char_traitsIcESaIcEEE @40
    _ZN8TepeGolo12AssetManager8LoadFontENSt7__cxx1112basic_stringIcSt11char_traitsIcESaIcEEES6_ @41
    _ZN8TepeGolo12AssetManagerC1Ev @42
    _ZN8TepeGolo12AssetManagerD1Ev @43
    _ZN8TepeGolo12ImputManager15IsSpriteClickedEN2sf6SpriteENS1_5Mouse6ButtonERNS1_12RenderWindowE @44
    _ZN8TepeGolo12ImputManager16GetMousePositionERN2sf12RenderWindowE @45
    _ZN8TepeGolo12ImputManagerC1Ev @46
    _ZN8TepeGolo12ImputManagerD1Ev @47
    _ZN8TepeGolo13GameOverState11GererEntrerEv @48
    _ZN8TepeGolo13GameOverState4InitEv @49
    _ZN8TepeGolo13GameOverState6UpdateEf @50
    _ZN8TepeGolo13GameOverState8DessinerEf @51
    _ZN8TepeGolo13GameOverStateC1ESt10shared_ptrINS_8GameDataEE @52
    _ZN8TepeGolo13GameOverStateC2ESt10shared_ptrINS_8GameDataEE @53
    _ZN8TepeGolo13MainMenuState11GererEntrerEv @54
    _ZN8TepeGolo13MainMenuState4InitEv @55
    _ZN8TepeGolo13MainMenuState6UpdateEf @56
    _ZN8TepeGolo13MainMenuState8DessinerEf @57
    _ZN8TepeGolo13MainMenuStateC1ESt10shared_ptrINS_8GameDataEE @58
    _ZN8TepeGolo13MainMenuStateC2ESt10shared_ptrINS_8GameDataEE @59
    _ZN8TepeGolo3Jeu3RunEv @60
    _ZN8TepeGolo3JeuC1EiiNSt7__cxx1112basic_stringIcSt11char_traitsIcESaIcEEE @61
    _ZN8TepeGolo3JeuC2EiiNSt7__cxx1112basic_stringIcSt11char_traitsIcESaIcEEE @62
    _ZN8TepeGolo3JeuD1Ev @63
    _ZN8TepeGolo4Case10placerCaseEff @64
    _ZN8TepeGolo4Case10placerMineEv @65
    _ZN8TepeGolo4Case7MarquerEv @66
    _ZN8TepeGolo4Case8afficherERN2sf12RenderWindowE @67
    _ZN8TepeGolo4Case8getPlaceEv @68
    _ZN8TepeGolo4Case8setPlaceEff @69
    _ZN8TepeGolo4Case9decouvrirEv @70
    _ZN8TepeGolo4CaseC1ERKS0_ @71
    _ZN8TepeGolo4CaseC1Ev @72
    _ZN8TepeGolo4CaseC2Ev @73
    _ZN8TepeGolo4CaseD1Ev @74
    _ZN8TepeGolo4CaseaSEOS0_ @75
    _ZN8TepeGolo4Etat5PauseEv @76
    _ZN8TepeGolo4Etat7RepriseEv @77
    _ZN8TepeGolo4EtatC2ERKS0_ @78
    _ZN8TepeGolo4EtatC2Ev @79
    _ZN8TepeGolo8GameDataC1Ev @80
    _ZN8TepeGolo8GameDataD1Ev @81
    _ZN8TepeGolo9GameState10ClickDroitEv @82
    _ZN8TepeGolo9GameState11ClickGaucheEv @83
    _ZN8TepeGolo9GameState11GenererMineEv @84
    _ZN8TepeGolo9GameState11GererEntrerEv @85
    _ZN8TepeGolo9GameState4InitEv @86
    _ZN8TepeGolo9GameState6UpdateEf @87
    _ZN8TepeGolo9GameState8DessinerEf @88
    _ZN8TepeGolo9GameState8InitCaseEv @89
    _ZN8TepeGolo9GameStateC1ERKS0_ @90
    _ZN8TepeGolo9GameStateC1ESt10shared_ptrINS_8GameDataEE @91
    _ZN8TepeGolo9GameStateC2ESt10shared_ptrINS_8GameDataEE @92
    _ZN8TepeGolo9GameStateD1Ev @93
    _ZN9__gnu_cxx11char_traitsIcE2eqERKcS3_ @94
    _ZN9__gnu_cxx11char_traitsIcE2ltERKcS3_ @95
    _ZN9__gnu_cxx11char_traitsIcE6lengthEPKc @96
    _ZN9__gnu_cxx11char_traitsIcE7compareEPKcS3_y @97
    _ZN9__gnu_cxx13new_allocatorIN2sf6VertexEE10deallocateEPS2_y @98
    _ZN9__gnu_cxx13new_allocatorIN2sf6VertexEE8allocateEyPKv @99
    _ZN9__gnu_cxx13new_allocatorIN2sf6VertexEEC2ERKS3_ @100
    _ZN9__gnu_cxx13new_allocatorIN2sf6VertexEED2Ev @101
    _ZN9__gnu_cxx13new_allocatorIN8TepeGolo8GameDataEE7destroyIS2_EEvPT_ @102
    _ZN9__gnu_cxx13new_allocatorIN8TepeGolo8GameDataEE9constructIS2_JEEEvPT_DpOT0_ @103
    _ZN9__gnu_cxx13new_allocatorIN8TepeGolo8GameDataEEC2ERKS3_ @104
    _ZN9__gnu_cxx13new_allocatorIN8TepeGolo8GameDataEEC2Ev @105
    _ZN9__gnu_cxx13new_allocatorIN8TepeGolo8GameDataEED2Ev @106
    _ZN9__gnu_cxx13new_allocatorIPSt10unique_ptrIN8TepeGolo4EtatESt14default_deleteIS3_EEE10deallocateEPS7_y @107
    _ZN9__gnu_cxx13new_allocatorIPSt10unique_ptrIN8TepeGolo4EtatESt14default_deleteIS3_EEE8allocateEyPKv @108
    _ZN9__gnu_cxx13new_allocatorIPSt10unique_ptrIN8TepeGolo4EtatESt14default_deleteIS3_EEEC2Ev @109
    _ZN9__gnu_cxx13new_allocatorIPSt10unique_ptrIN8TepeGolo4EtatESt14default_deleteIS3_EEED2Ev @110
    _ZN9__gnu_cxx13new_allocatorISt10unique_ptrIN8TepeGolo4EtatESt14default_deleteIS3_EEE10deallocateEPS6_y @111
    _ZN9__gnu_cxx13new_allocatorISt10unique_ptrIN8TepeGolo4EtatESt14default_deleteIS3_EEE7destroyIS6_EEvPT_ @112
    _ZN9__gnu_cxx13new_allocatorISt10unique_ptrIN8TepeGolo4EtatESt14default_deleteIS3_EEE8allocateEyPKv @113
    _ZN9__gnu_cxx13new_allocatorISt10unique_ptrIN8TepeGolo4EtatESt14default_deleteIS3_EEE9constructIS6_JS6_EEEvPT_DpOT0_ @114
    _ZN9__gnu_cxx13new_allocatorISt10unique_ptrIN8TepeGolo4EtatESt14default_deleteIS3_EEEC2Ev @115
    _ZN9__gnu_cxx13new_allocatorISt10unique_ptrIN8TepeGolo4EtatESt14default_deleteIS3_EEED2Ev @116
    _ZN9__gnu_cxx13new_allocatorISt13_Rb_tree_nodeISt4pairIKNSt7__cxx1112basic_stringIcSt11char_traitsIcESaIcEEEN2sf4FontEEEE10deallocateEPSD_y @117
    _ZN9__gnu_cxx13new_allocatorISt13_Rb_tree_nodeISt4pairIKNSt7__cxx1112basic_stringIcSt11char_traitsIcESaIcEEEN2sf4FontEEEE7destroyISC_EEvPT_ @118
    _ZN9__gnu_cxx13new_allocatorISt13_Rb_tree_nodeISt4pairIKNSt7__cxx1112basic_stringIcSt11char_traitsIcESaIcEEEN2sf4FontEEEE8allocateEyPKv @119
    _ZN9__gnu_cxx13new_allocatorISt13_Rb_tree_nodeISt4pairIKNSt7__cxx1112basic_stringIcSt11char_traitsIcESaIcEEEN2sf4FontEEEE9constructISC_JRKSt21piecewise_construct_tSt5tupleIJRS9_EESJ_IJEEEEEvPT_DpOT0_ @120
    _ZN9__gnu_cxx13new_allocatorISt13_Rb_tree_nodeISt4pairIKNSt7__cxx1112basic_stringIcSt11char_traitsIcESaIcEEEN2sf4FontEEEEC2Ev @121
    _ZN9__gnu_cxx13new_allocatorISt13_Rb_tree_nodeISt4pairIKNSt7__cxx1112basic_stringIcSt11char_traitsIcESaIcEEEN2sf4FontEEEED2Ev @122
    _ZN9__gnu_cxx13new_allocatorISt13_Rb_tree_nodeISt4pairIKNSt7__cxx1112basic_stringIcSt11char_traitsIcESaIcEEEN2sf7TextureEEEE10deallocateEPSD_y @123
    _ZN9__gnu_cxx13new_allocatorISt13_Rb_tree_nodeISt4pairIKNSt7__cxx1112basic_stringIcSt11char_traitsIcESaIcEEEN2sf7TextureEEEE7destroyISC_EEvPT_ @124
    _ZN9__gnu_cxx13new_allocatorISt13_Rb_tree_nodeISt4pairIKNSt7__cxx1112basic_stringIcSt11char_traitsIcESaIcEEEN2sf7TextureEEEE8allocateEyPKv @125
    _ZN9__gnu_cxx13new_allocatorISt13_Rb_tree_nodeISt4pairIKNSt7__cxx1112basic_stringIcSt11char_traitsIcESaIcEEEN2sf7TextureEEEE9constructISC_JRKSt21piecewise_construct_tSt5tupleIJRS9_EESJ_IJEEEEEvPT_DpOT0_ @126
    _ZN9__gnu_cxx13new_allocatorISt13_Rb_tree_nodeISt4pairIKNSt7__cxx1112basic_stringIcSt11char_traitsIcESaIcEEEN2sf7TextureEEEEC2Ev @127
    _ZN9__gnu_cxx13new_allocatorISt13_Rb_tree_nodeISt4pairIKNSt7__cxx1112basic_stringIcSt11char_traitsIcESaIcEEEN2sf7TextureEEEED2Ev @128
    _ZN9__gnu_cxx13new_allocatorISt23_Sp_counted_ptr_inplaceIN8TepeGolo8GameDataESaIS3_ELNS_12_Lock_policyE2EEE10deallocateEPS6_y @129
    _ZN9__gnu_cxx13new_allocatorISt23_Sp_counted_ptr_inplaceIN8TepeGolo8GameDataESaIS3_ELNS_12_Lock_policyE2EEE8allocateEyPKv @130
    _ZN9__gnu_cxx13new_allocatorISt23_Sp_counted_ptr_inplaceIN8TepeGolo8GameDataESaIS3_ELNS_12_Lock_policyE2EEEC2Ev @131
    _ZN9__gnu_cxx13new_allocatorISt23_Sp_counted_ptr_inplaceIN8TepeGolo8GameDataESaIS3_ELNS_12_Lock_policyE2EEED2Ev @132
    _ZN9__gnu_cxx13new_allocatorIcE10deallocateEPcy @133
    _ZN9__gnu_cxx13new_allocatorIcE8allocateEyPKv @134
    _ZN9__gnu_cxx13new_allocatorIjE10deallocateEPjy @135
    _ZN9__gnu_cxx13new_allocatorIjED2Ev @136
    _ZN9__gnu_cxx14__alloc_traitsISaIN2sf6VertexEES2_E17_S_select_on_copyERKS3_ @137
    _ZN9__gnu_cxx14__alloc_traitsISaIcEcE17_S_select_on_copyERKS1_ @138
    _ZN9__gnu_cxx16__aligned_bufferIN8TepeGolo8GameDataEE6_M_ptrEv @139
    _ZN9__gnu_cxx16__aligned_bufferIN8TepeGolo8GameDataEE7_M_addrEv @140
    _ZN9__gnu_cxx16__aligned_membufISt4pairIKNSt7__cxx1112basic_stringIcSt11char_traitsIcESaIcEEEN2sf4FontEEE6_M_ptrEv @141
    _ZN9__gnu_cxx16__aligned_membufISt4pairIKNSt7__cxx1112basic_stringIcSt11char_traitsIcESaIcEEEN2sf4FontEEE7_M_addrEv @142
    _ZN9__gnu_cxx16__aligned_membufISt4pairIKNSt7__cxx1112basic_stringIcSt11char_traitsIcESaIcEEEN2sf7TextureEEE6_M_ptrEv @143
    _ZN9__gnu_cxx16__aligned_membufISt4pairIKNSt7__cxx1112basic_stringIcSt11char_traitsIcESaIcEEEN2sf7TextureEEE7_M_addrEv @144
    _ZN9__gnu_cxx17__is_null_pointerIKcEEbPT_ @145
    _ZN9__gnu_cxx17__is_null_pointerIcEEbPT_ @146
    _ZN9__gnu_cxx17__normal_iteratorIPKN2sf6VertexESt6vectorIS2_SaIS2_EEEC1ERKS4_ @147
    _ZN9__gnu_cxx17__normal_iteratorIPKN2sf6VertexESt6vectorIS2_SaIS2_EEEppEv @148
    _ZN9__gnu_cxxneIPKN2sf6VertexESt6vectorIS2_SaIS2_EEEEbRKNS_17__normal_iteratorIT_T0_EESD_ @149
    _ZNK2sf4RectIiE8containsERKNS_7Vector2IiEE @150
    _ZNK2sf4RectIiE8containsEii @151
    _ZNK9__gnu_cxx13new_allocatorIN2sf6VertexEE8max_sizeEv @152
    _ZNK9__gnu_cxx13new_allocatorIPSt10unique_ptrIN8TepeGolo4EtatESt14default_deleteIS3_EEE8max_sizeEv @153
    _ZNK9__gnu_cxx13new_allocatorISt10unique_ptrIN8TepeGolo4EtatESt14default_deleteIS3_EEE8max_sizeEv @154
    _ZNK9__gnu_cxx13new_allocatorISt13_Rb_tree_nodeISt4pairIKNSt7__cxx1112basic_stringIcSt11char_traitsIcESaIcEEEN2sf4FontEEEE8max_sizeEv @155
    _ZNK9__gnu_cxx13new_allocatorISt13_Rb_tree_nodeISt4pairIKNSt7__cxx1112basic_stringIcSt11char_traitsIcESaIcEEEN2sf7TextureEEEE8max_sizeEv @156
    _ZNK9__gnu_cxx13new_allocatorISt23_Sp_counted_ptr_inplaceIN8TepeGolo8GameDataESaIS3_ELNS_12_Lock_policyE2EEE8max_sizeEv @157
    _ZNK9__gnu_cxx13new_allocatorIcE8max_sizeEv @158
    _ZNK9__gnu_cxx16__aligned_membufISt4pairIKNSt7__cxx1112basic_stringIcSt11char_traitsIcESaIcEEEN2sf4FontEEE6_M_ptrEv @159
    _ZNK9__gnu_cxx16__aligned_membufISt4pairIKNSt7__cxx1112basic_stringIcSt11char_traitsIcESaIcEEEN2sf4FontEEE7_M_addrEv @160
    _ZNK9__gnu_cxx16__aligned_membufISt4pairIKNSt7__cxx1112basic_stringIcSt11char_traitsIcESaIcEEEN2sf7TextureEEE6_M_ptrEv @161
    _ZNK9__gnu_cxx16__aligned_membufISt4pairIKNSt7__cxx1112basic_stringIcSt11char_traitsIcESaIcEEEN2sf7TextureEEE7_M_addrEv @162
    _ZNK9__gnu_cxx17__normal_iteratorIPKN2sf6VertexESt6vectorIS2_SaIS2_EEE4baseEv @163
    _ZNK9__gnu_cxx17__normal_iteratorIPKN2sf6VertexESt6vectorIS2_SaIS2_EEEdeEv @164
    _ZNKSt10_Select1stISt4pairIKNSt7__cxx1112basic_stringIcSt11char_traitsIcESaIcEEEN2sf4FontEEEclERKSA_ @165
    _ZNKSt10_Select1stISt4pairIKNSt7__cxx1112basic_stringIcSt11char_traitsIcESaIcEEEN2sf7TextureEEEclERKSA_ @166
    _ZNKSt10unique_ptrIN8TepeGolo4EtatESt14default_deleteIS1_EE3getEv @167
    _ZNKSt10unique_ptrIN8TepeGolo4EtatESt14default_deleteIS1_EEptEv @168
    _ZNKSt11_Deque_baseISt10unique_ptrIN8TepeGolo4EtatESt14default_deleteIS2_EESaIS5_EE19_M_get_Tp_allocatorEv @169
    _ZNKSt11_Deque_baseISt10unique_ptrIN8TepeGolo4EtatESt14default_deleteIS2_EESaIS5_EE20_M_get_map_allocatorEv @170
    _ZNKSt12_Vector_baseIN2sf6VertexESaIS1_EE19_M_get_Tp_allocatorEv @171
    _ZNKSt12__shared_ptrIN8TepeGolo8GameDataELN9__gnu_cxx12_Lock_policyE2EE3getEv @172
    _ZNKSt13_Rb_tree_nodeISt4pairIKNSt7__cxx1112basic_stringIcSt11char_traitsIcESaIcEEEN2sf4FontEEE9_M_valptrEv @173
    _ZNKSt13_Rb_tree_nodeISt4pairIKNSt7__cxx1112basic_stringIcSt11char_traitsIcESaIcEEEN2sf7TextureEEE9_M_valptrEv @174
    _ZNKSt14__shared_countILN9__gnu_cxx12_Lock_policyE2EE14_M_get_deleterERKSt9type_info @175
    _ZNKSt14default_deleteIN8TepeGolo4EtatEEclEPS1_ @176
    _ZNKSt15_Deque_iteratorISt10unique_ptrIN8TepeGolo4EtatESt14default_deleteIS2_EERS5_PS5_EdeEv @177
    _ZNKSt15__uniq_ptr_implIN8TepeGolo4EtatESt14default_deleteIS1_EE6_M_ptrEv @178
    _ZNKSt17_Rb_tree_iteratorISt4pairIKNSt7__cxx1112basic_stringIcSt11char_traitsIcESaIcEEEN2sf4FontEEEdeEv @179
    _ZNKSt17_Rb_tree_iteratorISt4pairIKNSt7__cxx1112basic_stringIcSt11char_traitsIcESaIcEEEN2sf4FontEEEeqERKSB_ @180
    _ZNKSt17_Rb_tree_iteratorISt4pairIKNSt7__cxx1112basic_stringIcSt11char_traitsIcESaIcEEEN2sf7TextureEEEdeEv @181
    _ZNKSt17_Rb_tree_iteratorISt4pairIKNSt7__cxx1112basic_stringIcSt11char_traitsIcESaIcEEEN2sf7TextureEEEeqERKSB_ @182
    _ZNKSt19__shared_ptr_accessIN8TepeGolo8GameDataELN9__gnu_cxx12_Lock_policyE2ELb0ELb0EE6_M_getEv @183
    _ZNKSt19__shared_ptr_accessIN8TepeGolo8GameDataELN9__gnu_cxx12_Lock_policyE2ELb0ELb0EEptEv @184
    _ZNKSt23_Rb_tree_const_iteratorISt4pairIKNSt7__cxx1112basic_stringIcSt11char_traitsIcESaIcEEEN2sf4FontEEE13_M_const_castEv @185
    _ZNKSt23_Rb_tree_const_iteratorISt4pairIKNSt7__cxx1112basic_stringIcSt11char_traitsIcESaIcEEEN2sf7TextureEEE13_M_const_castEv @186
    _ZNKSt3mapINSt7__cxx1112basic_stringIcSt11char_traitsIcESaIcEEEN2sf4FontESt4lessIS5_ESaISt4pairIKS5_S7_EEE8key_compEv @187
    _ZNKSt3mapINSt7__cxx1112basic_stringIcSt11char_traitsIcESaIcEEEN2sf7TextureESt4lessIS5_ESaISt4pairIKS5_S7_EEE8key_compEv @188
    _ZNKSt4lessINSt7__cxx1112basic_stringIcSt11char_traitsIcESaIcEEEEclERKS5_S8_ @189
    _ZNKSt5dequeISt10unique_ptrIN8TepeGolo4EtatESt14default_deleteIS2_EESaIS5_EE5emptyEv @190
    _ZNKSt5stackISt10unique_ptrIN8TepeGolo4EtatESt14default_deleteIS2_EESt5dequeIS5_SaIS5_EEE5emptyEv @191
    _ZNKSt6vectorIN2sf6VertexESaIS1_EE3endEv @192
    _ZNKSt6vectorIN2sf6VertexESaIS1_EE4sizeEv @193
    _ZNKSt6vectorIN2sf6VertexESaIS1_EE5beginEv @194
    _ZNKSt7__cxx1112basic_stringIcSt11char_traitsIcESaIcEE11_M_is_localEv @195
    _ZNKSt7__cxx1112basic_stringIcSt11char_traitsIcESaIcEE13_M_local_dataEv @196
    _ZNKSt7__cxx1112basic_stringIcSt11char_traitsIcESaIcEE16_M_get_allocatorEv @197
    _ZNKSt7__cxx1112basic_stringIcSt11char_traitsIcESaIcEE4dataEv @198
    _ZNKSt7__cxx1112basic_stringIcSt11char_traitsIcESaIcEE4sizeEv @199
    _ZNKSt7__cxx1112basic_stringIcSt11char_traitsIcESaIcEE6lengthEv @200
    _ZNKSt7__cxx1112basic_stringIcSt11char_traitsIcESaIcEE7_M_dataEv @201
    _ZNKSt7__cxx1112basic_stringIcSt11char_traitsIcESaIcEE7compareERKS4_ @202
    _ZNKSt7__cxx1112basic_stringIcSt11char_traitsIcESaIcEE8max_sizeEv @203
    _ZNKSt7__cxx1112basic_stringIjSt11char_traitsIjESaIjEE11_M_is_localEv @204
    _ZNKSt7__cxx1112basic_stringIjSt11char_traitsIjESaIjEE13_M_local_dataEv @205
    _ZNKSt7__cxx1112basic_stringIjSt11char_traitsIjESaIjEE7_M_dataEv @206
    _ZNKSt8_Rb_treeINSt7__cxx1112basic_stringIcSt11char_traitsIcESaIcEEESt4pairIKS5_N2sf4FontEESt10_Select1stISA_ESt4lessIS5_ESaISA_EE4sizeEv @207
    _ZNKSt8_Rb_treeINSt7__cxx1112basic_stringIcSt11char_traitsIcESaIcEEESt4pairIKS5_N2sf4FontEESt10_Select1stISA_ESt4lessIS5_ESaISA_EE8key_compEv @208
    _ZNKSt8_Rb_treeINSt7__cxx1112basic_stringIcSt11char_traitsIcESaIcEEESt4pairIKS5_N2sf7TextureEESt10_Select1stISA_ESt4lessIS5_ESaISA_EE4sizeEv @209
    _ZNKSt8_Rb_treeINSt7__cxx1112basic_stringIcSt11char_traitsIcESaIcEEESt4pairIKS5_N2sf7TextureEESt10_Select1stISA_ESt4lessIS5_ESaISA_EE8key_compEv @210
    _ZNSaIN2sf6VertexEEC1ERKS1_ @211
    _ZNSaIN2sf6VertexEEC2ERKS1_ @212
    _ZNSaIN2sf6VertexEED1Ev @213
    _ZNSaIN2sf6VertexEED2Ev @214
    _ZNSaIN8TepeGolo8GameDataEEC1ERKS1_ @215
    _ZNSaIN8TepeGolo8GameDataEEC1Ev @216
    _ZNSaIN8TepeGolo8GameDataEEC2ERKS1_ @217
    _ZNSaIN8TepeGolo8GameDataEED1Ev @218
    _ZNSaIN8TepeGolo8GameDataEED2Ev @219
    _ZNSaIPSt10unique_ptrIN8TepeGolo4EtatESt14default_deleteIS1_EEEC1IS4_EERKSaIT_E @220
    _ZNSaIPSt10unique_ptrIN8TepeGolo4EtatESt14default_deleteIS1_EEED1Ev @221
    _ZNSaISt10unique_ptrIN8TepeGolo4EtatESt14default_deleteIS1_EEEC2Ev @222
    _ZNSaISt10unique_ptrIN8TepeGolo4EtatESt14default_deleteIS1_EEED2Ev @223
    _ZNSaISt13_Rb_tree_nodeISt4pairIKNSt7__cxx1112basic_stringIcSt11char_traitsIcESaIcEEEN2sf4FontEEEEC2Ev @224
    _ZNSaISt13_Rb_tree_nodeISt4pairIKNSt7__cxx1112basic_stringIcSt11char_traitsIcESaIcEEEN2sf4FontEEEED2Ev @225
    _ZNSaISt13_Rb_tree_nodeISt4pairIKNSt7__cxx1112basic_stringIcSt11char_traitsIcESaIcEEEN2sf7TextureEEEEC2Ev @226
    _ZNSaISt13_Rb_tree_nodeISt4pairIKNSt7__cxx1112basic_stringIcSt11char_traitsIcESaIcEEEN2sf7TextureEEEED2Ev @227
    _ZNSaISt23_Sp_counted_ptr_inplaceIN8TepeGolo8GameDataESaIS1_ELN9__gnu_cxx12_Lock_policyE2EEEC1IS1_EERKSaIT_E @228
    _ZNSaISt23_Sp_counted_ptr_inplaceIN8TepeGolo8GameDataESaIS1_ELN9__gnu_cxx12_Lock_policyE2EEED1Ev @229
    _ZNSaIjED2Ev @230
    _ZNSt10_Head_baseILy0EPN8TepeGolo4EtatELb0EE7_M_headERKS3_ @231
    _ZNSt10_Head_baseILy0EPN8TepeGolo4EtatELb0EE7_M_headERS3_ @232
    _ZNSt10_Head_baseILy0EPN8TepeGolo4EtatELb0EEC2Ev @233
    _ZNSt10_Head_baseILy0EPN8TepeGolo4EtatELb0EEC2IRS2_EEOT_ @234
    _ZNSt10_Head_baseILy0ERKNSt7__cxx1112basic_stringIcSt11char_traitsIcESaIcEEELb0EE7_M_headERS8_ @235
    _ZNSt10_Head_baseILy0ERKNSt7__cxx1112basic_stringIcSt11char_traitsIcESaIcEEELb0EEC2ES7_ @236
    _ZNSt10_Head_baseILy1ESt14default_deleteIN8TepeGolo4EtatEELb1EE7_M_headERS4_ @237
    _ZNSt10_Head_baseILy1ESt14default_deleteIN8TepeGolo4EtatEELb1EEC2Ev @238
    _ZNSt10_Head_baseILy1ESt14default_deleteIN8TepeGolo4EtatEELb1EEC2IS3_EEOT_ @239
    _ZNSt10shared_ptrIN8TepeGolo8GameDataEEC1ERKS2_ @240
    _ZNSt10shared_ptrIN8TepeGolo8GameDataEEC1Ev @241
    _ZNSt10shared_ptrIN8TepeGolo8GameDataEEC1ISaIS1_EJEEESt19_Sp_make_shared_tagRKT_DpOT0_ @242
    _ZNSt10shared_ptrIN8TepeGolo8GameDataEED1Ev @243
    _ZNSt10shared_ptrIN8TepeGolo8GameDataEEaSEOS2_ @244
    _ZNSt10shared_ptrIN8TepeGolo8GameDataEEaSERKS2_ @245
    _ZNSt10unique_ptrIN8TepeGolo4EtatESt14default_deleteIS1_EE11get_deleterEv @246
    _ZNSt10unique_ptrIN8TepeGolo4EtatESt14default_deleteIS1_EE5resetEPS1_ @247
    _ZNSt10unique_ptrIN8TepeGolo4EtatESt14default_deleteIS1_EE7releaseEv @248
    _ZNSt10unique_ptrIN8TepeGolo4EtatESt14default_deleteIS1_EEC1EOS4_ @249
    _ZNSt10unique_ptrIN8TepeGolo4EtatESt14default_deleteIS1_EEC1IS3_vEEPS1_ @250
    _ZNSt10unique_ptrIN8TepeGolo4EtatESt14default_deleteIS1_EEC1IS3_vEEv @251
    _ZNSt10unique_ptrIN8TepeGolo4EtatESt14default_deleteIS1_EED1Ev @252
    _ZNSt10unique_ptrIN8TepeGolo4EtatESt14default_deleteIS1_EEaSEOS4_ @253
    _ZNSt11_Deque_baseISt10unique_ptrIN8TepeGolo4EtatESt14default_deleteIS2_EESaIS5_EE11_Deque_implC1Ev @254
    _ZNSt11_Deque_baseISt10unique_ptrIN8TepeGolo4EtatESt14default_deleteIS2_EESaIS5_EE11_Deque_implD1Ev @255
    _ZNSt11_Deque_baseISt10unique_ptrIN8TepeGolo4EtatESt14default_deleteIS2_EESaIS5_EE15_M_allocate_mapEy @256
    _ZNSt11_Deque_baseISt10unique_ptrIN8TepeGolo4EtatESt14default_deleteIS2_EESaIS5_EE15_M_create_nodesEPPS5_S9_ @257
    _ZNSt11_Deque_baseISt10unique_ptrIN8TepeGolo4EtatESt14default_deleteIS2_EESaIS5_EE16_M_allocate_nodeEv @258
    _ZNSt11_Deque_baseISt10unique_ptrIN8TepeGolo4EtatESt14default_deleteIS2_EESaIS5_EE16_M_destroy_nodesEPPS5_S9_ @259
    _ZNSt11_Deque_baseISt10unique_ptrIN8TepeGolo4EtatESt14default_deleteIS2_EESaIS5_EE17_M_deallocate_mapEPPS5_y @260
    _ZNSt11_Deque_baseISt10unique_ptrIN8TepeGolo4EtatESt14default_deleteIS2_EESaIS5_EE17_M_initialize_mapEy @261
    _ZNSt11_Deque_baseISt10unique_ptrIN8TepeGolo4EtatESt14default_deleteIS2_EESaIS5_EE18_M_deallocate_nodeEPS5_ @262
    _ZNSt11_Deque_baseISt10unique_ptrIN8TepeGolo4EtatESt14default_deleteIS2_EESaIS5_EE19_M_get_Tp_allocatorEv @263
    _ZNSt11_Deque_baseISt10unique_ptrIN8TepeGolo4EtatESt14default_deleteIS2_EESaIS5_EEC2Ev @264
    _ZNSt11_Deque_baseISt10unique_ptrIN8TepeGolo4EtatESt14default_deleteIS2_EESaIS5_EED2Ev @265
    _ZNSt11_Tuple_implILy0EJPN8TepeGolo4EtatESt14default_deleteIS1_EEE7_M_headERKS5_ @266
    _ZNSt11_Tuple_implILy0EJPN8TepeGolo4EtatESt14default_deleteIS1_EEE7_M_headERS5_ @267
    _ZNSt11_Tuple_implILy0EJPN8TepeGolo4EtatESt14default_deleteIS1_EEEC2Ev @268
    _ZNSt11_Tuple_implILy0EJPN8TepeGolo4EtatESt14default_deleteIS1_EEEC2IRS2_JS4_EvEEOT_DpOT0_ @269
    _ZNSt11_Tuple_implILy0EJRKNSt7__cxx1112basic_stringIcSt11char_traitsIcESaIcEEEEE7_M_headERS8_ @270
    _ZNSt11_Tuple_implILy0EJRKNSt7__cxx1112basic_stringIcSt11char_traitsIcESaIcEEEEEC2EOS8_ @271
    _ZNSt11_Tuple_implILy0EJRKNSt7__cxx1112basic_stringIcSt11char_traitsIcESaIcEEEEEC2ES7_ @272
    _ZNSt11_Tuple_implILy1EJSt14default_deleteIN8TepeGolo4EtatEEEE7_M_headERS4_ @273
    _ZNSt11_Tuple_implILy1EJSt14default_deleteIN8TepeGolo4EtatEEEEC2Ev @274
    _ZNSt11_Tuple_implILy1EJSt14default_deleteIN8TepeGolo4EtatEEEEC2IS3_EEOT_ @275
    _ZNSt11__copy_moveILb0ELb1ESt26random_access_iterator_tagE8__copy_mIPSt10unique_ptrIN8TepeGolo4EtatESt14default_deleteIS5_EEEEPT_PKSA_SD_SB_ @276
    _ZNSt11char_traitsIcE4copyEPcPKcy @277
    _ZNSt11char_traitsIcE6assignERcRKc @278
    _ZNSt11char_traitsIcE6lengthEPKc @279
    _ZNSt11char_traitsIcE7compareEPKcS2_y @280
    _ZNSt12_Destroy_auxILb0EE9__destroyIPSt10unique_ptrIN8TepeGolo4EtatESt14default_deleteIS4_EEEEvT_S9_ @281
    _ZNSt12_Destroy_auxILb1EE9__destroyIPN2sf6VertexEEEvT_S5_ @282
    _ZNSt12_Vector_baseIN2sf6VertexESaIS1_EE11_M_allocateEy @283
    _ZNSt12_Vector_baseIN2sf6VertexESaIS1_EE12_Vector_implC1ERKS2_ @284
    _ZNSt12_Vector_baseIN2sf6VertexESaIS1_EE12_Vector_implD1Ev @285
    _ZNSt12_Vector_baseIN2sf6VertexESaIS1_EE13_M_deallocateEPS1_y @286
    _ZNSt12_Vector_baseIN2sf6VertexESaIS1_EE17_M_create_storageEy @287
    _ZNSt12_Vector_baseIN2sf6VertexESaIS1_EE19_M_get_Tp_allocatorEv @288
    _ZNSt12_Vector_baseIN2sf6VertexESaIS1_EEC2EyRKS2_ @289
    _ZNSt12_Vector_baseIN2sf6VertexESaIS1_EED2Ev @290
    _ZNSt12__shared_ptrIN8TepeGolo8GameDataELN9__gnu_cxx12_Lock_policyE2EE31_M_enable_shared_from_this_withIS1_S1_EENSt9enable_ifIXntsrNS4_15__has_esft_baseIT0_vEE5valueEvE4typeEPT_ @291
    _ZNSt12__shared_ptrIN8TepeGolo8GameDataELN9__gnu_cxx12_Lock_policyE2EE4swapERS4_ @292
    _ZNSt12__shared_ptrIN8TepeGolo8GameDataELN9__gnu_cxx12_Lock_policyE2EEC1EOS4_ @293
    _ZNSt12__shared_ptrIN8TepeGolo8GameDataELN9__gnu_cxx12_Lock_policyE2EEC2ERKS4_ @294
    _ZNSt12__shared_ptrIN8TepeGolo8GameDataELN9__gnu_cxx12_Lock_policyE2EEC2Ev @295
    _ZNSt12__shared_ptrIN8TepeGolo8GameDataELN9__gnu_cxx12_Lock_policyE2EEC2ISaIS1_EJEEESt19_Sp_make_shared_tagRKT_DpOT0_ @296
    _ZNSt12__shared_ptrIN8TepeGolo8GameDataELN9__gnu_cxx12_Lock_policyE2EED1Ev @297
    _ZNSt12__shared_ptrIN8TepeGolo8GameDataELN9__gnu_cxx12_Lock_policyE2EED2Ev @298
    _ZNSt12__shared_ptrIN8TepeGolo8GameDataELN9__gnu_cxx12_Lock_policyE2EEaSEOS4_ @299
    _ZNSt12__shared_ptrIN8TepeGolo8GameDataELN9__gnu_cxx12_Lock_policyE2EEaSERKS4_ @300
    _ZNSt13_Rb_tree_nodeISt4pairIKNSt7__cxx1112basic_stringIcSt11char_traitsIcESaIcEEEN2sf4FontEEE9_M_valptrEv @301
    _ZNSt13_Rb_tree_nodeISt4pairIKNSt7__cxx1112basic_stringIcSt11char_traitsIcESaIcEEEN2sf7TextureEEE9_M_valptrEv @302
    _ZNSt14_Sp_ebo_helperILi0ESaIN8TepeGolo8GameDataEELb1EE6_S_getERS3_ @303
    _ZNSt14_Sp_ebo_helperILi0ESaIN8TepeGolo8GameDataEELb1EEC2ERKS2_ @304
    _ZNSt14_Sp_ebo_helperILi0ESaIN8TepeGolo8GameDataEELb1EED2Ev @305
    _ZNSt14__shared_countILN9__gnu_cxx12_Lock_policyE2EE7_M_swapERS2_ @306
    _ZNSt14__shared_countILN9__gnu_cxx12_Lock_policyE2EEC1ERKS2_ @307
    _ZNSt14__shared_countILN9__gnu_cxx12_Lock_policyE2EEC1Ev @308
    _ZNSt14__shared_countILN9__gnu_cxx12_Lock_policyE2EEC1IN8TepeGolo8GameDataESaIS5_EJEEESt19_Sp_make_shared_tagPT_RKT0_DpOT1_ @309
    _ZNSt14__shared_countILN9__gnu_cxx12_Lock_policyE2EED1Ev @310
    _ZNSt14__shared_countILN9__gnu_cxx12_Lock_policyE2EEaSERKS2_ @311
    _ZNSt14pointer_traitsIPKcE10pointer_toERS0_ @312
    _ZNSt14pointer_traitsIPKjE10pointer_toERS0_ @313
    _ZNSt14pointer_traitsIPcE10pointer_toERc @314
    _ZNSt15_Deque_iteratorISt10unique_ptrIN8TepeGolo4EtatESt14default_deleteIS2_EERS5_PS5_E11_M_set_nodeEPS7_ @315
    _ZNSt15_Deque_iteratorISt10unique_ptrIN8TepeGolo4EtatESt14default_deleteIS2_EERS5_PS5_E14_S_buffer_sizeEv @316
    _ZNSt15_Deque_iteratorISt10unique_ptrIN8TepeGolo4EtatESt14default_deleteIS2_EERS5_PS5_EC1ERKS8_ @317
    _ZNSt15_Deque_iteratorISt10unique_ptrIN8TepeGolo4EtatESt14default_deleteIS2_EERS5_PS5_EC1Ev @318
    _ZNSt15_Deque_iteratorISt10unique_ptrIN8TepeGolo4EtatESt14default_deleteIS2_EERS5_PS5_EmmEv @319
    _ZNSt15_Rb_tree_header8_M_resetEv @320
    _ZNSt15_Rb_tree_headerC2Ev @321
    _ZNSt15__allocated_ptrISaISt23_Sp_counted_ptr_inplaceIN8TepeGolo8GameDataESaIS2_ELN9__gnu_cxx12_Lock_policyE2EEEE3getEv @322
    _ZNSt15__allocated_ptrISaISt23_Sp_counted_ptr_inplaceIN8TepeGolo8GameDataESaIS2_ELN9__gnu_cxx12_Lock_policyE2EEEEC1ERS7_PS6_ @323
    _ZNSt15__allocated_ptrISaISt23_Sp_counted_ptr_inplaceIN8TepeGolo8GameDataESaIS2_ELN9__gnu_cxx12_Lock_policyE2EEEED1Ev @324
    _ZNSt15__allocated_ptrISaISt23_Sp_counted_ptr_inplaceIN8TepeGolo8GameDataESaIS2_ELN9__gnu_cxx12_Lock_policyE2EEEEaSEDn @325
    _ZNSt15__uniq_ptr_implIN8TepeGolo4EtatESt14default_deleteIS1_EE10_M_deleterEv @326
    _ZNSt15__uniq_ptr_implIN8TepeGolo4EtatESt14default_deleteIS1_EE6_M_ptrEv @327
    _ZNSt15__uniq_ptr_implIN8TepeGolo4EtatESt14default_deleteIS1_EEC1EPS1_ @328
    _ZNSt15__uniq_ptr_implIN8TepeGolo4EtatESt14default_deleteIS1_EEC1Ev @329
    _ZNSt15__uniq_ptr_implIN8TepeGolo4EtatESt14default_deleteIS1_EEC1IS3_EEPS1_OT_ @330
    _ZNSt16_Sp_counted_baseILN9__gnu_cxx12_Lock_policyE2EE10_M_destroyEv @331
    _ZNSt16_Sp_counted_baseILN9__gnu_cxx12_Lock_policyE2EE10_M_releaseEv @332
    _ZNSt16_Sp_counted_baseILN9__gnu_cxx12_Lock_policyE2EE15_M_add_ref_copyEv @333
    _ZNSt16_Sp_counted_baseILN9__gnu_cxx12_Lock_policyE2EEC2Ev @334
    _ZNSt16_Sp_counted_baseILN9__gnu_cxx12_Lock_policyE2EED2Ev @335
    _ZNSt16allocator_traitsISaIN2sf6VertexEEE10deallocateERS2_PS1_y @336
    _ZNSt16allocator_traitsISaIN2sf6VertexEEE37select_on_container_copy_constructionERKS2_ @337
    _ZNSt16allocator_traitsISaIN2sf6VertexEEE8allocateERS2_y @338
    _ZNSt16allocator_traitsISaIN8TepeGolo8GameDataEEE7destroyIS1_EEvRS2_PT_ @339
    _ZNSt16allocator_traitsISaIN8TepeGolo8GameDataEEE9constructIS1_JEEEvRS2_PT_DpOT0_ @340
    _ZNSt16allocator_traitsISaIPSt10unique_ptrIN8TepeGolo4EtatESt14default_deleteIS2_EEEE10deallocateERS7_PS6_y @341
    _ZNSt16allocator_traitsISaIPSt10unique_ptrIN8TepeGolo4EtatESt14default_deleteIS2_EEEE8allocateERS7_y @342
    _ZNSt16allocator_traitsISaISt10unique_ptrIN8TepeGolo4EtatESt14default_deleteIS2_EEEE10deallocateERS6_PS5_y @343
    _ZNSt16allocator_traitsISaISt10unique_ptrIN8TepeGolo4EtatESt14default_deleteIS2_EEEE7destroyIS5_EEvRS6_PT_ @344
    _ZNSt16allocator_traitsISaISt10unique_ptrIN8TepeGolo4EtatESt14default_deleteIS2_EEEE8allocateERS6_y @345
    _ZNSt16allocator_traitsISaISt10unique_ptrIN8TepeGolo4EtatESt14default_deleteIS2_EEEE9constructIS5_JS5_EEEvRS6_PT_DpOT0_ @346
    _ZNSt16allocator_traitsISaISt13_Rb_tree_nodeISt4pairIKNSt7__cxx1112basic_stringIcSt11char_traitsIcESaIcEEEN2sf4FontEEEEE10deallocateERSD_PSC_y @347
    _ZNSt16allocator_traitsISaISt13_Rb_tree_nodeISt4pairIKNSt7__cxx1112basic_stringIcSt11char_traitsIcESaIcEEEN2sf4FontEEEEE7destroyISB_EEvRSD_PT_ @348
    _ZNSt16allocator_traitsISaISt13_Rb_tree_nodeISt4pairIKNSt7__cxx1112basic_stringIcSt11char_traitsIcESaIcEEEN2sf4FontEEEEE8allocateERSD_y @349
    _ZNSt16allocator_traitsISaISt13_Rb_tree_nodeISt4pairIKNSt7__cxx1112basic_stringIcSt11char_traitsIcESaIcEEEN2sf4FontEEEEE9constructISB_JRKSt21piecewise_construct_tSt5tupleIJRS8_EESJ_IJEEEEEvRSD_PT_DpOT0_ @350
    _ZNSt16allocator_traitsISaISt13_Rb_tree_nodeISt4pairIKNSt7__cxx1112basic_stringIcSt11char_traitsIcESaIcEEEN2sf7TextureEEEEE10deallocateERSD_PSC_y @351
    _ZNSt16allocator_traitsISaISt13_Rb_tree_nodeISt4pairIKNSt7__cxx1112basic_stringIcSt11char_traitsIcESaIcEEEN2sf7TextureEEEEE7destroyISB_EEvRSD_PT_ @352
    _ZNSt16allocator_traitsISaISt13_Rb_tree_nodeISt4pairIKNSt7__cxx1112basic_stringIcSt11char_traitsIcESaIcEEEN2sf7TextureEEEEE8allocateERSD_y @353
    _ZNSt16allocator_traitsISaISt13_Rb_tree_nodeISt4pairIKNSt7__cxx1112basic_stringIcSt11char_traitsIcESaIcEEEN2sf7TextureEEEEE9constructISB_JRKSt21piecewise_construct_tSt5tupleIJRS8_EESJ_IJEEEEEvRSD_PT_DpOT0_ @354
    _ZNSt16allocator_traitsISaISt23_Sp_counted_ptr_inplaceIN8TepeGolo8GameDataESaIS2_ELN9__gnu_cxx12_Lock_policyE2EEEE10deallocateERS7_PS6_y @355
    _ZNSt16allocator_traitsISaISt23_Sp_counted_ptr_inplaceIN8TepeGolo8GameDataESaIS2_ELN9__gnu_cxx12_Lock_policyE2EEEE8allocateERS7_y @356
    _ZNSt16allocator_traitsISaIcEE10deallocateERS0_Pcy @357
    _ZNSt16allocator_traitsISaIcEE37select_on_container_copy_constructionERKS0_ @358
    _ZNSt16allocator_traitsISaIcEE8allocateERS0_y @359
    _ZNSt16allocator_traitsISaIcEE8max_sizeERKS0_ @360
    _ZNSt16allocator_traitsISaIjEE10deallocateERS0_Pjy @361
    _ZNSt17_Rb_tree_iteratorISt4pairIKNSt7__cxx1112basic_stringIcSt11char_traitsIcESaIcEEEN2sf4FontEEEC1EPSt18_Rb_tree_node_base @362
    _ZNSt17_Rb_tree_iteratorISt4pairIKNSt7__cxx1112basic_stringIcSt11char_traitsIcESaIcEEEN2sf4FontEEEmmEv @363
    _ZNSt17_Rb_tree_iteratorISt4pairIKNSt7__cxx1112basic_stringIcSt11char_traitsIcESaIcEEEN2sf4FontEEEppEv @364
    _ZNSt17_Rb_tree_iteratorISt4pairIKNSt7__cxx1112basic_stringIcSt11char_traitsIcESaIcEEEN2sf7TextureEEEC1EPSt18_Rb_tree_node_base @365
    _ZNSt17_Rb_tree_iteratorISt4pairIKNSt7__cxx1112basic_stringIcSt11char_traitsIcESaIcEEEN2sf7TextureEEEmmEv @366
    _ZNSt17_Rb_tree_iteratorISt4pairIKNSt7__cxx1112basic_stringIcSt11char_traitsIcESaIcEEEN2sf7TextureEEEppEv @367
    _ZNSt20_Rb_tree_key_compareISt4lessINSt7__cxx1112basic_stringIcSt11char_traitsIcESaIcEEEEEC2Ev @368
    _ZNSt20__copy_move_backwardILb0ELb1ESt26random_access_iterator_tagE13__copy_move_bIPSt10unique_ptrIN8TepeGolo4EtatESt14default_deleteIS5_EEEEPT_PKSA_SD_SB_ @369
    _ZNSt20__uninitialized_copyILb0EE13__uninit_copyIN9__gnu_cxx17__normal_iteratorIPKN2sf6VertexESt6vectorIS5_SaIS5_EEEEPS5_EET0_T_SE_SD_ @370
    _ZNSt23_Rb_tree_const_iteratorISt4pairIKNSt7__cxx1112basic_stringIcSt11char_traitsIcESaIcEEEN2sf4FontEEEC1ERKSt17_Rb_tree_iteratorISA_E @371
    _ZNSt23_Rb_tree_const_iteratorISt4pairIKNSt7__cxx1112basic_stringIcSt11char_traitsIcESaIcEEEN2sf7TextureEEEC1ERKSt17_Rb_tree_iteratorISA_E @372
    _ZNSt23_Sp_counted_ptr_inplaceIN8TepeGolo8GameDataESaIS1_ELN9__gnu_cxx12_Lock_policyE2EE10_M_destroyEv @373
    _ZNSt23_Sp_counted_ptr_inplaceIN8TepeGolo8GameDataESaIS1_ELN9__gnu_cxx12_Lock_policyE2EE10_M_disposeEv @374
    _ZNSt23_Sp_counted_ptr_inplaceIN8TepeGolo8GameDataESaIS1_ELN9__gnu_cxx12_Lock_policyE2EE14_M_get_deleterERKSt9type_info @375
    _ZNSt23_Sp_counted_ptr_inplaceIN8TepeGolo8GameDataESaIS1_ELN9__gnu_cxx12_Lock_policyE2EE5_Impl8_M_allocEv @376
    _ZNSt23_Sp_counted_ptr_inplaceIN8TepeGolo8GameDataESaIS1_ELN9__gnu_cxx12_Lock_policyE2EE5_ImplC1ES2_ @377
    _ZNSt23_Sp_counted_ptr_inplaceIN8TepeGolo8GameDataESaIS1_ELN9__gnu_cxx12_Lock_policyE2EE5_ImplD1Ev @378
    _ZNSt23_Sp_counted_ptr_inplaceIN8TepeGolo8GameDataESaIS1_ELN9__gnu_cxx12_Lock_policyE2EE6_M_ptrEv @379
    _ZNSt23_Sp_counted_ptr_inplaceIN8TepeGolo8GameDataESaIS1_ELN9__gnu_cxx12_Lock_policyE2EEC1IJEEES2_DpOT_ @380
    _ZNSt23_Sp_counted_ptr_inplaceIN8TepeGolo8GameDataESaIS1_ELN9__gnu_cxx12_Lock_policyE2EED0Ev @381
    _ZNSt23_Sp_counted_ptr_inplaceIN8TepeGolo8GameDataESaIS1_ELN9__gnu_cxx12_Lock_policyE2EED1Ev @382
    _ZNSt3mapINSt7__cxx1112basic_stringIcSt11char_traitsIcESaIcEEEN2sf4FontESt4lessIS5_ESaISt4pairIKS5_S7_EEE11lower_boundERSB_ @383
    _ZNSt3mapINSt7__cxx1112basic_stringIcSt11char_traitsIcESaIcEEEN2sf4FontESt4lessIS5_ESaISt4pairIKS5_S7_EEE2atERSB_ @384
    _ZNSt3mapINSt7__cxx1112basic_stringIcSt11char_traitsIcESaIcEEEN2sf4FontESt4lessIS5_ESaISt4pairIKS5_S7_EEE3endEv @385
    _ZNSt3mapINSt7__cxx1112basic_stringIcSt11char_traitsIcESaIcEEEN2sf4FontESt4lessIS5_ESaISt4pairIKS5_S7_EEEC1Ev @386
    _ZNSt3mapINSt7__cxx1112basic_stringIcSt11char_traitsIcESaIcEEEN2sf4FontESt4lessIS5_ESaISt4pairIKS5_S7_EEED1Ev @387
    _ZNSt3mapINSt7__cxx1112basic_stringIcSt11char_traitsIcESaIcEEEN2sf4FontESt4lessIS5_ESaISt4pairIKS5_S7_EEEixERSB_ @388
    _ZNSt3mapINSt7__cxx1112basic_stringIcSt11char_traitsIcESaIcEEEN2sf7TextureESt4lessIS5_ESaISt4pairIKS5_S7_EEE11lower_boundERSB_ @389
    _ZNSt3mapINSt7__cxx1112basic_stringIcSt11char_traitsIcESaIcEEEN2sf7TextureESt4lessIS5_ESaISt4pairIKS5_S7_EEE2atERSB_ @390
    _ZNSt3mapINSt7__cxx1112basic_stringIcSt11char_traitsIcESaIcEEEN2sf7TextureESt4lessIS5_ESaISt4pairIKS5_S7_EEE3endEv @391
    _ZNSt3mapINSt7__cxx1112basic_stringIcSt11char_traitsIcESaIcEEEN2sf7TextureESt4lessIS5_ESaISt4pairIKS5_S7_EEEC1Ev @392
    _ZNSt3mapINSt7__cxx1112basic_stringIcSt11char_traitsIcESaIcEEEN2sf7TextureESt4lessIS5_ESaISt4pairIKS5_S7_EEED1Ev @393
    _ZNSt3mapINSt7__cxx1112basic_stringIcSt11char_traitsIcESaIcEEEN2sf7TextureESt4lessIS5_ESaISt4pairIKS5_S7_EEEixERSB_ @394
    _ZNSt4pairIKNSt7__cxx1112basic_stringIcSt11char_traitsIcESaIcEEEN2sf4FontEEC1IJRS6_EJEEESt21piecewise_construct_tSt5tupleIJDpT_EESD_IJDpT0_EE @395
    _ZNSt4pairIKNSt7__cxx1112basic_stringIcSt11char_traitsIcESaIcEEEN2sf4FontEEC1IJRS6_EJLy0EEJEJEEERSt5tupleIJDpT_EERSC_IJDpT1_EESt12_Index_tupleIJXspT0_EEESL_IJXspT2_EEE @396
    _ZNSt4pairIKNSt7__cxx1112basic_stringIcSt11char_traitsIcESaIcEEEN2sf4FontEED1Ev @397
    _ZNSt4pairIKNSt7__cxx1112basic_stringIcSt11char_traitsIcESaIcEEEN2sf7TextureEEC1IJRS6_EJEEESt21piecewise_construct_tSt5tupleIJDpT_EESD_IJDpT0_EE @398
    _ZNSt4pairIKNSt7__cxx1112basic_stringIcSt11char_traitsIcESaIcEEEN2sf7TextureEEC1IJRS6_EJLy0EEJEJEEERSt5tupleIJDpT_EERSC_IJDpT1_EESt12_Index_tupleIJXspT0_EEESL_IJXspT2_EEE @399
    _ZNSt4pairIKNSt7__cxx1112basic_stringIcSt11char_traitsIcESaIcEEEN2sf7TextureEED1Ev @400
    _ZNSt4pairIPSt18_Rb_tree_node_baseS1_EC1IRPSt13_Rb_tree_nodeIS_IKNSt7__cxx1112basic_stringIcSt11char_traitsIcESaIcEEEN2sf4FontEEERS1_Lb1EEEOT_OT0_ @401
    _ZNSt4pairIPSt18_Rb_tree_node_baseS1_EC1IRPSt13_Rb_tree_nodeIS_IKNSt7__cxx1112basic_stringIcSt11char_traitsIcESaIcEEEN2sf7TextureEEERS1_Lb1EEEOT_OT0_ @402
    _ZNSt4pairIPSt18_Rb_tree_node_baseS1_EC1IRS1_Lb1EEEOT_RKS1_ @403
    _ZNSt4pairIPSt18_Rb_tree_node_baseS1_EC1IRS1_Lb1EEERKS1_OT_ @404
    _ZNSt4pairIPSt18_Rb_tree_node_baseS1_EC1IRS1_S4_Lb1EEEOT_OT0_ @405
    _ZNSt5dequeISt10unique_ptrIN8TepeGolo4EtatESt14default_deleteIS2_EESaIS5_EE12emplace_backIJS5_EEERS5_DpOT_ @406
    _ZNSt5dequeISt10unique_ptrIN8TepeGolo4EtatESt14default_deleteIS2_EESaIS5_EE14_S_buffer_sizeEv @407
    _ZNSt5dequeISt10unique_ptrIN8TepeGolo4EtatESt14default_deleteIS2_EESaIS5_EE15_M_destroy_dataESt15_Deque_iteratorIS5_RS5_PS5_ESB_RKS6_ @408
    _ZNSt5dequeISt10unique_ptrIN8TepeGolo4EtatESt14default_deleteIS2_EESaIS5_EE15_M_pop_back_auxEv @409
    _ZNSt5dequeISt10unique_ptrIN8TepeGolo4EtatESt14default_deleteIS2_EESaIS5_EE16_M_push_back_auxIJS5_EEEvDpOT_ @410
    _ZNSt5dequeISt10unique_ptrIN8TepeGolo4EtatESt14default_deleteIS2_EESaIS5_EE17_M_reallocate_mapEyb @411
    _ZNSt5dequeISt10unique_ptrIN8TepeGolo4EtatESt14default_deleteIS2_EESaIS5_EE19_M_destroy_data_auxESt15_Deque_iteratorIS5_RS5_PS5_ESB_ @412
    _ZNSt5dequeISt10unique_ptrIN8TepeGolo4EtatESt14default_deleteIS2_EESaIS5_EE22_M_reserve_map_at_backEy @413
    _ZNSt5dequeISt10unique_ptrIN8TepeGolo4EtatESt14default_deleteIS2_EESaIS5_EE3endEv @414
    _ZNSt5dequeISt10unique_ptrIN8TepeGolo4EtatESt14default_deleteIS2_EESaIS5_EE4backEv @415
    _ZNSt5dequeISt10unique_ptrIN8TepeGolo4EtatESt14default_deleteIS2_EESaIS5_EE5beginEv @416
    _ZNSt5dequeISt10unique_ptrIN8TepeGolo4EtatESt14default_deleteIS2_EESaIS5_EE8pop_backEv @417
    _ZNSt5dequeISt10unique_ptrIN8TepeGolo4EtatESt14default_deleteIS2_EESaIS5_EE9push_backEOS5_ @418
    _ZNSt5dequeISt10unique_ptrIN8TepeGolo4EtatESt14default_deleteIS2_EESaIS5_EEC1Ev @419
    _ZNSt5dequeISt10unique_ptrIN8TepeGolo4EtatESt14default_deleteIS2_EESaIS5_EED1Ev @420
    _ZNSt5stackISt10unique_ptrIN8TepeGolo4EtatESt14default_deleteIS2_EESt5dequeIS5_SaIS5_EEE3popEv @421
    _ZNSt5stackISt10unique_ptrIN8TepeGolo4EtatESt14default_deleteIS2_EESt5dequeIS5_SaIS5_EEE3topEv @422
    _ZNSt5stackISt10unique_ptrIN8TepeGolo4EtatESt14default_deleteIS2_EESt5dequeIS5_SaIS5_EEE4pushEOS5_ @423
    _ZNSt5stackISt10unique_ptrIN8TepeGolo4EtatESt14default_deleteIS2_EESt5dequeIS5_SaIS5_EEEC1IS8_vEEv @424
    _ZNSt5stackISt10unique_ptrIN8TepeGolo4EtatESt14default_deleteIS2_EESt5dequeIS5_SaIS5_EEED1Ev @425
    _ZNSt5tupleIJPN8TepeGolo4EtatESt14default_deleteIS1_EEEC1IRS2_S4_Lb1EEEOT_OT0_ @426
    _ZNSt5tupleIJPN8TepeGolo4EtatESt14default_deleteIS1_EEEC1IS2_S4_Lb1EEEv @427
    _ZNSt5tupleIJRKNSt7__cxx1112basic_stringIcSt11char_traitsIcESaIcEEEEEC1EOS8_ @428
    _ZNSt5tupleIJRKNSt7__cxx1112basic_stringIcSt11char_traitsIcESaIcEEEEEC1IvLb1EEES7_ @429
    _ZNSt6vectorIN2sf6VertexESaIS1_EEC1ERKS3_ @430
    _ZNSt6vectorIN2sf6VertexESaIS1_EED1Ev @431
    _ZNSt7__cxx1112basic_stringIcSt11char_traitsIcESaIcEE10_M_destroyEy @432
    _ZNSt7__cxx1112basic_stringIcSt11char_traitsIcESaIcEE10_M_disposeEv @433
    _ZNSt7__cxx1112basic_stringIcSt11char_traitsIcESaIcEE10_S_compareEyy @434
    _ZNSt7__cxx1112basic_stringIcSt11char_traitsIcESaIcEE11_M_capacityEy @435
    _ZNSt7__cxx1112basic_stringIcSt11char_traitsIcESaIcEE12_Alloc_hiderC1EPcOS3_ @436
    _ZNSt7__cxx1112basic_stringIcSt11char_traitsIcESaIcEE12_Alloc_hiderC1EPcRKS3_ @437
    _ZNSt7__cxx1112basic_stringIcSt11char_traitsIcESaIcEE12_Alloc_hiderD1Ev @438
    _ZNSt7__cxx1112basic_stringIcSt11char_traitsIcESaIcEE12_M_constructIPKcEEvT_S8_ @439
    _ZNSt7__cxx1112basic_stringIcSt11char_traitsIcESaIcEE12_M_constructIPKcEEvT_S8_St20forward_iterator_tag @440
    _ZNSt7__cxx1112basic_stringIcSt11char_traitsIcESaIcEE12_M_constructIPcEEvT_S7_ @441
    _ZNSt7__cxx1112basic_stringIcSt11char_traitsIcESaIcEE12_M_constructIPcEEvT_S7_St20forward_iterator_tag @442
    _ZNSt7__cxx1112basic_stringIcSt11char_traitsIcESaIcEE13_M_local_dataEv @443
    _ZNSt7__cxx1112basic_stringIcSt11char_traitsIcESaIcEE13_M_set_lengthEy @444
    _ZNSt7__cxx1112basic_stringIcSt11char_traitsIcESaIcEE13_S_copy_charsEPcPKcS7_ @445
    _ZNSt7__cxx1112basic_stringIcSt11char_traitsIcESaIcEE13_S_copy_charsEPcS5_S5_ @446
    _ZNSt7__cxx1112basic_stringIcSt11char_traitsIcESaIcEE16_M_construct_auxIPKcEEvT_S8_St12__false_type @447
    _ZNSt7__cxx1112basic_stringIcSt11char_traitsIcESaIcEE16_M_construct_auxIPcEEvT_S7_St12__false_type @448
    _ZNSt7__cxx1112basic_stringIcSt11char_traitsIcESaIcEE16_M_get_allocatorEv @449
    _ZNSt7__cxx1112basic_stringIcSt11char_traitsIcESaIcEE7_M_dataEPc @450
    _ZNSt7__cxx1112basic_stringIcSt11char_traitsIcESaIcEE7_S_copyEPcPKcy @451
    _ZNSt7__cxx1112basic_stringIcSt11char_traitsIcESaIcEE9_M_createERyy @452
    _ZNSt7__cxx1112basic_stringIcSt11char_traitsIcESaIcEE9_M_lengthEy @453
    _ZNSt7__cxx1112basic_stringIcSt11char_traitsIcESaIcEEC1EPKcRKS3_ @454
    _ZNSt7__cxx1112basic_stringIcSt11char_traitsIcESaIcEEC1ERKS4_ @455
    _ZNSt7__cxx1112basic_stringIcSt11char_traitsIcESaIcEED1Ev @456
    _ZNSt7__cxx1112basic_stringIjSt11char_traitsIjESaIjEE10_M_destroyEy @457
    _ZNSt7__cxx1112basic_stringIjSt11char_traitsIjESaIjEE10_M_disposeEv @458
    _ZNSt7__cxx1112basic_stringIjSt11char_traitsIjESaIjEE12_Alloc_hiderD1Ev @459
    _ZNSt7__cxx1112basic_stringIjSt11char_traitsIjESaIjEE16_M_get_allocatorEv @460
    _ZNSt7__cxx1112basic_stringIjSt11char_traitsIjESaIjEED1Ev @461
    _ZNSt8_Rb_treeINSt7__cxx1112basic_stringIcSt11char_traitsIcESaIcEEESt4pairIKS5_N2sf4FontEESt10_Select1stISA_ESt4lessIS5_ESaISA_EE11_M_get_nodeEv @462
    _ZNSt8_Rb_treeINSt7__cxx1112basic_stringIcSt11char_traitsIcESaIcEEESt4pairIKS5_N2sf4FontEESt10_Select1stISA_ESt4lessIS5_ESaISA_EE11_M_leftmostEv @463
    _ZNSt8_Rb_treeINSt7__cxx1112basic_stringIcSt11char_traitsIcESaIcEEESt4pairIKS5_N2sf4FontEESt10_Select1stISA_ESt4lessIS5_ESaISA_EE11_M_put_nodeEPSt13_Rb_tree_nodeISA_E @464
    _ZNSt8_Rb_treeINSt7__cxx1112basic_stringIcSt11char_traitsIcESaIcEEESt4pairIKS5_N2sf4FontEESt10_Select1stISA_ESt4lessIS5_ESaISA_EE11lower_boundERS7_ @465
    _ZNSt8_Rb_treeINSt7__cxx1112basic_stringIcSt11char_traitsIcESaIcEEESt4pairIKS5_N2sf4FontEESt10_Select1stISA_ESt4lessIS5_ESaISA_EE12_M_drop_nodeEPSt13_Rb_tree_nodeISA_E @466
    _ZNSt8_Rb_treeINSt7__cxx1112basic_stringIcSt11char_traitsIcESaIcEEESt4pairIKS5_N2sf4FontEESt10_Select1stISA_ESt4lessIS5_ESaISA_EE12_M_rightmostEv @467
    _ZNSt8_Rb_treeINSt7__cxx1112basic_stringIcSt11char_traitsIcESaIcEEESt4pairIKS5_N2sf4FontEESt10_Select1stISA_ESt4lessIS5_ESaISA_EE13_Rb_tree_implISE_Lb1EEC1Ev @468
    _ZNSt8_Rb_treeINSt7__cxx1112basic_stringIcSt11char_traitsIcESaIcEEESt4pairIKS5_N2sf4FontEESt10_Select1stISA_ESt4lessIS5_ESaISA_EE13_Rb_tree_implISE_Lb1EED1Ev @469
    _ZNSt8_Rb_treeINSt7__cxx1112basic_stringIcSt11char_traitsIcESaIcEEESt4pairIKS5_N2sf4FontEESt10_Select1stISA_ESt4lessIS5_ESaISA_EE14_M_create_nodeIJRKSt21piecewise_construct_tSt5tupleIJRS7_EESL_IJEEEEEPSt13_Rb_tree_nodeISA_EDpOT_ @470
    _ZNSt8_Rb_treeINSt7__cxx1112basic_stringIcSt11char_traitsIcESaIcEEESt4pairIKS5_N2sf4FontEESt10_Select1stISA_ESt4lessIS5_ESaISA_EE14_M_insert_nodeEPSt18_Rb_tree_node_baseSI_PSt13_Rb_tree_nodeISA_E @471
    _ZNSt8_Rb_treeINSt7__cxx1112basic_stringIcSt11char_traitsIcESaIcEEESt4pairIKS5_N2sf4FontEESt10_Select1stISA_ESt4lessIS5_ESaISA_EE14_M_lower_boundEPSt13_Rb_tree_nodeISA_EPSt18_Rb_tree_node_baseRS7_ @472
    _ZNSt8_Rb_treeINSt7__cxx1112basic_stringIcSt11char_traitsIcESaIcEEESt4pairIKS5_N2sf4FontEESt10_Select1stISA_ESt4lessIS5_ESaISA_EE15_M_destroy_nodeEPSt13_Rb_tree_nodeISA_E @473
    _ZNSt8_Rb_treeINSt7__cxx1112basic_stringIcSt11char_traitsIcESaIcEEESt4pairIKS5_N2sf4FontEESt10_Select1stISA_ESt4lessIS5_ESaISA_EE17_M_construct_nodeIJRKSt21piecewise_construct_tSt5tupleIJRS7_EESL_IJEEEEEvPSt13_Rb_tree_nodeISA_EDpOT_ @474
    _ZNSt8_Rb_treeINSt7__cxx1112basic_stringIcSt11char_traitsIcESaIcEEESt4pairIKS5_N2sf4FontEESt10_Select1stISA_ESt4lessIS5_ESaISA_EE21_M_get_Node_allocatorEv @475
    _ZNSt8_Rb_treeINSt7__cxx1112basic_stringIcSt11char_traitsIcESaIcEEESt4pairIKS5_N2sf4FontEESt10_Select1stISA_ESt4lessIS5_ESaISA_EE22_M_emplace_hint_uniqueIJRKSt21piecewise_construct_tSt5tupleIJRS7_EESL_IJEEEEESt17_Rb_tree_iteratorISA_ESt23_Rb_tree_const_iteratorISA_EDpOT_ @476
    _ZNSt8_Rb_treeINSt7__cxx1112basic_stringIcSt11char_traitsIcESaIcEEESt4pairIKS5_N2sf4FontEESt10_Select1stISA_ESt4lessIS5_ESaISA_EE24_M_get_insert_unique_posERS7_ @477
    _ZNSt8_Rb_treeINSt7__cxx1112basic_stringIcSt11char_traitsIcESaIcEEESt4pairIKS5_N2sf4FontEESt10_Select1stISA_ESt4lessIS5_ESaISA_EE29_M_get_insert_hint_unique_posESt23_Rb_tree_const_iteratorISA_ERS7_ @478
    _ZNSt8_Rb_treeINSt7__cxx1112basic_stringIcSt11char_traitsIcESaIcEEESt4pairIKS5_N2sf4FontEESt10_Select1stISA_ESt4lessIS5_ESaISA_EE3endEv @479
    _ZNSt8_Rb_treeINSt7__cxx1112basic_stringIcSt11char_traitsIcESaIcEEESt4pairIKS5_N2sf4FontEESt10_Select1stISA_ESt4lessIS5_ESaISA_EE5beginEv @480
    _ZNSt8_Rb_treeINSt7__cxx1112basic_stringIcSt11char_traitsIcESaIcEEESt4pairIKS5_N2sf4FontEESt10_Select1stISA_ESt4lessIS5_ESaISA_EE6_M_endEv @481
    _ZNSt8_Rb_treeINSt7__cxx1112basic_stringIcSt11char_traitsIcESaIcEEESt4pairIKS5_N2sf4FontEESt10_Select1stISA_ESt4lessIS5_ESaISA_EE6_S_keyEPKSt13_Rb_tree_nodeISA_E @482
    _ZNSt8_Rb_treeINSt7__cxx1112basic_stringIcSt11char_traitsIcESaIcEEESt4pairIKS5_N2sf4FontEESt10_Select1stISA_ESt4lessIS5_ESaISA_EE6_S_keyEPKSt18_Rb_tree_node_base @483
    _ZNSt8_Rb_treeINSt7__cxx1112basic_stringIcSt11char_traitsIcESaIcEEESt4pairIKS5_N2sf4FontEESt10_Select1stISA_ESt4lessIS5_ESaISA_EE7_S_leftEPSt18_Rb_tree_node_base @484
    _ZNSt8_Rb_treeINSt7__cxx1112basic_stringIcSt11char_traitsIcESaIcEEESt4pairIKS5_N2sf4FontEESt10_Select1stISA_ESt4lessIS5_ESaISA_EE8_M_beginEv @485
    _ZNSt8_Rb_treeINSt7__cxx1112basic_stringIcSt11char_traitsIcESaIcEEESt4pairIKS5_N2sf4FontEESt10_Select1stISA_ESt4lessIS5_ESaISA_EE8_M_eraseEPSt13_Rb_tree_nodeISA_E @486
    _ZNSt8_Rb_treeINSt7__cxx1112basic_stringIcSt11char_traitsIcESaIcEEESt4pairIKS5_N2sf4FontEESt10_Select1stISA_ESt4lessIS5_ESaISA_EE8_S_rightEPSt18_Rb_tree_node_base @487
    _ZNSt8_Rb_treeINSt7__cxx1112basic_stringIcSt11char_traitsIcESaIcEEESt4pairIKS5_N2sf4FontEESt10_Select1stISA_ESt4lessIS5_ESaISA_EE8_S_valueEPKSt13_Rb_tree_nodeISA_E @488
    _ZNSt8_Rb_treeINSt7__cxx1112basic_stringIcSt11char_traitsIcESaIcEEESt4pairIKS5_N2sf4FontEESt10_Select1stISA_ESt4lessIS5_ESaISA_EE8_S_valueEPKSt18_Rb_tree_node_base @489
    _ZNSt8_Rb_treeINSt7__cxx1112basic_stringIcSt11char_traitsIcESaIcEEESt4pairIKS5_N2sf4FontEESt10_Select1stISA_ESt4lessIS5_ESaISA_EEC1Ev @490
    _ZNSt8_Rb_treeINSt7__cxx1112basic_stringIcSt11char_traitsIcESaIcEEESt4pairIKS5_N2sf4FontEESt10_Select1stISA_ESt4lessIS5_ESaISA_EED1Ev @491
    _ZNSt8_Rb_treeINSt7__cxx1112basic_stringIcSt11char_traitsIcESaIcEEESt4pairIKS5_N2sf7TextureEESt10_Select1stISA_ESt4lessIS5_ESaISA_EE11_M_get_nodeEv @492
    _ZNSt8_Rb_treeINSt7__cxx1112basic_stringIcSt11char_traitsIcESaIcEEESt4pairIKS5_N2sf7TextureEESt10_Select1stISA_ESt4lessIS5_ESaISA_EE11_M_leftmostEv @493
    _ZNSt8_Rb_treeINSt7__cxx1112basic_stringIcSt11char_traitsIcESaIcEEESt4pairIKS5_N2sf7TextureEESt10_Select1stISA_ESt4lessIS5_ESaISA_EE11_M_put_nodeEPSt13_Rb_tree_nodeISA_E @494
    _ZNSt8_Rb_treeINSt7__cxx1112basic_stringIcSt11char_traitsIcESaIcEEESt4pairIKS5_N2sf7TextureEESt10_Select1stISA_ESt4lessIS5_ESaISA_EE11lower_boundERS7_ @495
    _ZNSt8_Rb_treeINSt7__cxx1112basic_stringIcSt11char_traitsIcESaIcEEESt4pairIKS5_N2sf7TextureEESt10_Select1stISA_ESt4lessIS5_ESaISA_EE12_M_drop_nodeEPSt13_Rb_tree_nodeISA_E @496
    _ZNSt8_Rb_treeINSt7__cxx1112basic_stringIcSt11char_traitsIcESaIcEEESt4pairIKS5_N2sf7TextureEESt10_Select1stISA_ESt4lessIS5_ESaISA_EE12_M_rightmostEv @497
    _ZNSt8_Rb_treeINSt7__cxx1112basic_stringIcSt11char_traitsIcESaIcEEESt4pairIKS5_N2sf7TextureEESt10_Select1stISA_ESt4lessIS5_ESaISA_EE13_Rb_tree_implISE_Lb1EEC1Ev @498
    _ZNSt8_Rb_treeINSt7__cxx1112basic_stringIcSt11char_traitsIcESaIcEEESt4pairIKS5_N2sf7TextureEESt10_Select1stISA_ESt4lessIS5_ESaISA_EE13_Rb_tree_implISE_Lb1EED1Ev @499
    _ZNSt8_Rb_treeINSt7__cxx1112basic_stringIcSt11char_traitsIcESaIcEEESt4pairIKS5_N2sf7TextureEESt10_Select1stISA_ESt4lessIS5_ESaISA_EE14_M_create_nodeIJRKSt21piecewise_construct_tSt5tupleIJRS7_EESL_IJEEEEEPSt13_Rb_tree_nodeISA_EDpOT_ @500
    _ZNSt8_Rb_treeINSt7__cxx1112basic_stringIcSt11char_traitsIcESaIcEEESt4pairIKS5_N2sf7TextureEESt10_Select1stISA_ESt4lessIS5_ESaISA_EE14_M_insert_nodeEPSt18_Rb_tree_node_baseSI_PSt13_Rb_tree_nodeISA_E @501
    _ZNSt8_Rb_treeINSt7__cxx1112basic_stringIcSt11char_traitsIcESaIcEEESt4pairIKS5_N2sf7TextureEESt10_Select1stISA_ESt4lessIS5_ESaISA_EE14_M_lower_boundEPSt13_Rb_tree_nodeISA_EPSt18_Rb_tree_node_baseRS7_ @502
    _ZNSt8_Rb_treeINSt7__cxx1112basic_stringIcSt11char_traitsIcESaIcEEESt4pairIKS5_N2sf7TextureEESt10_Select1stISA_ESt4lessIS5_ESaISA_EE15_M_destroy_nodeEPSt13_Rb_tree_nodeISA_E @503
    _ZNSt8_Rb_treeINSt7__cxx1112basic_stringIcSt11char_traitsIcESaIcEEESt4pairIKS5_N2sf7TextureEESt10_Select1stISA_ESt4lessIS5_ESaISA_EE17_M_construct_nodeIJRKSt21piecewise_construct_tSt5tupleIJRS7_EESL_IJEEEEEvPSt13_Rb_tree_nodeISA_EDpOT_ @504
    _ZNSt8_Rb_treeINSt7__cxx1112basic_stringIcSt11char_traitsIcESaIcEEESt4pairIKS5_N2sf7TextureEESt10_Select1stISA_ESt4lessIS5_ESaISA_EE21_M_get_Node_allocatorEv @505
    _ZNSt8_Rb_treeINSt7__cxx1112basic_stringIcSt11char_traitsIcESaIcEEESt4pairIKS5_N2sf7TextureEESt10_Select1stISA_ESt4lessIS5_ESaISA_EE22_M_emplace_hint_uniqueIJRKSt21piecewise_construct_tSt5tupleIJRS7_EESL_IJEEEEESt17_Rb_tree_iteratorISA_ESt23_Rb_tree_const_iteratorISA_EDpOT_ @506
    _ZNSt8_Rb_treeINSt7__cxx1112basic_stringIcSt11char_traitsIcESaIcEEESt4pairIKS5_N2sf7TextureEESt10_Select1stISA_ESt4lessIS5_ESaISA_EE24_M_get_insert_unique_posERS7_ @507
    _ZNSt8_Rb_treeINSt7__cxx1112basic_stringIcSt11char_traitsIcESaIcEEESt4pairIKS5_N2sf7TextureEESt10_Select1stISA_ESt4lessIS5_ESaISA_EE29_M_get_insert_hint_unique_posESt23_Rb_tree_const_iteratorISA_ERS7_ @508
    _ZNSt8_Rb_treeINSt7__cxx1112basic_stringIcSt11char_traitsIcESaIcEEESt4pairIKS5_N2sf7TextureEESt10_Select1stISA_ESt4lessIS5_ESaISA_EE3endEv @509
    _ZNSt8_Rb_treeINSt7__cxx1112basic_stringIcSt11char_traitsIcESaIcEEESt4pairIKS5_N2sf7TextureEESt10_Select1stISA_ESt4lessIS5_ESaISA_EE5beginEv @510
    _ZNSt8_Rb_treeINSt7__cxx1112basic_stringIcSt11char_traitsIcESaIcEEESt4pairIKS5_N2sf7TextureEESt10_Select1stISA_ESt4lessIS5_ESaISA_EE6_M_endEv @511
    _ZNSt8_Rb_treeINSt7__cxx1112basic_stringIcSt11char_traitsIcESaIcEEESt4pairIKS5_N2sf7TextureEESt10_Select1stISA_ESt4lessIS5_ESaISA_EE6_S_keyEPKSt13_Rb_tree_nodeISA_E @512
    _ZNSt8_Rb_treeINSt7__cxx1112basic_stringIcSt11char_traitsIcESaIcEEESt4pairIKS5_N2sf7TextureEESt10_Select1stISA_ESt4lessIS5_ESaISA_EE6_S_keyEPKSt18_Rb_tree_node_base @513
    _ZNSt8_Rb_treeINSt7__cxx1112basic_stringIcSt11char_traitsIcESaIcEEESt4pairIKS5_N2sf7TextureEESt10_Select1stISA_ESt4lessIS5_ESaISA_EE7_S_leftEPSt18_Rb_tree_node_base @514
    _ZNSt8_Rb_treeINSt7__cxx1112basic_stringIcSt11char_traitsIcESaIcEEESt4pairIKS5_N2sf7TextureEESt10_Select1stISA_ESt4lessIS5_ESaISA_EE8_M_beginEv @515
    _ZNSt8_Rb_treeINSt7__cxx1112basic_stringIcSt11char_traitsIcESaIcEEESt4pairIKS5_N2sf7TextureEESt10_Select1stISA_ESt4lessIS5_ESaISA_EE8_M_eraseEPSt13_Rb_tree_nodeISA_E @516
    _ZNSt8_Rb_treeINSt7__cxx1112basic_stringIcSt11char_traitsIcESaIcEEESt4pairIKS5_N2sf7TextureEESt10_Select1stISA_ESt4lessIS5_ESaISA_EE8_S_rightEPSt18_Rb_tree_node_base @517
    _ZNSt8_Rb_treeINSt7__cxx1112basic_stringIcSt11char_traitsIcESaIcEEESt4pairIKS5_N2sf7TextureEESt10_Select1stISA_ESt4lessIS5_ESaISA_EE8_S_valueEPKSt13_Rb_tree_nodeISA_E @518
    _ZNSt8_Rb_treeINSt7__cxx1112basic_stringIcSt11char_traitsIcESaIcEEESt4pairIKS5_N2sf7TextureEESt10_Select1stISA_ESt4lessIS5_ESaISA_EE8_S_valueEPKSt18_Rb_tree_node_base @519
    _ZNSt8_Rb_treeINSt7__cxx1112basic_stringIcSt11char_traitsIcESaIcEEESt4pairIKS5_N2sf7TextureEESt10_Select1stISA_ESt4lessIS5_ESaISA_EEC1Ev @520
    _ZNSt8_Rb_treeINSt7__cxx1112basic_stringIcSt11char_traitsIcESaIcEEESt4pairIKS5_N2sf7TextureEESt10_Select1stISA_ESt4lessIS5_ESaISA_EED1Ev @521
    _ZSt10_ConstructIN2sf6VertexEJRKS1_EEvPT_DpOT0_ @522
    _ZSt10__distanceIPKcENSt15iterator_traitsIT_E15difference_typeES3_S3_St26random_access_iterator_tag @523
    _ZSt10__distanceIPcENSt15iterator_traitsIT_E15difference_typeES2_S2_St26random_access_iterator_tag @524
    _ZSt11__addressofIKcEPT_RS1_ @525
    _ZSt11__addressofIKjEPT_RS1_ @526
    _ZSt11__addressofIN2sf6VertexEEPT_RS2_ @527
    _ZSt11__addressofISaISt23_Sp_counted_ptr_inplaceIN8TepeGolo8GameDataESaIS2_ELN9__gnu_cxx12_Lock_policyE2EEEEPT_RS8_ @528
    _ZSt11__addressofISt10unique_ptrIN8TepeGolo4EtatESt14default_deleteIS2_EEEPT_RS6_ @529
    _ZSt11__addressofIcEPT_RS0_ @530
    _ZSt11make_sharedIN8TepeGolo8GameDataEJEESt10shared_ptrIT_EDpOT0_ @531
    _ZSt12__get_helperILy0EPN8TepeGolo4EtatEJSt14default_deleteIS1_EEERKT0_RKSt11_Tuple_implIXT_EJS5_DpT1_EE @532
    _ZSt12__get_helperILy0EPN8TepeGolo4EtatEJSt14default_deleteIS1_EEERT0_RSt11_Tuple_implIXT_EJS5_DpT1_EE @533
    _ZSt12__get_helperILy0ERKNSt7__cxx1112basic_stringIcSt11char_traitsIcESaIcEEEJEERT0_RSt11_Tuple_implIXT_EJS8_DpT1_EE @534
    _ZSt12__get_helperILy1ESt14default_deleteIN8TepeGolo4EtatEEJEERT0_RSt11_Tuple_implIXT_EJS4_DpT1_EE @535
    _ZSt12__miter_baseIPPSt10unique_ptrIN8TepeGolo4EtatESt14default_deleteIS2_EEET_S8_ @536
    _ZSt12__niter_baseIPPSt10unique_ptrIN8TepeGolo4EtatESt14default_deleteIS2_EEET_S8_ @537
    _ZSt12__to_addressISt23_Sp_counted_ptr_inplaceIN8TepeGolo8GameDataESaIS2_ELN9__gnu_cxx12_Lock_policyE2EEEPT_S8_ @538
    _ZSt13__copy_move_aILb0EPPSt10unique_ptrIN8TepeGolo4EtatESt14default_deleteIS2_EES7_ET1_T0_S9_S8_ @539
    _ZSt13copy_backwardIPPSt10unique_ptrIN8TepeGolo4EtatESt14default_deleteIS2_EES7_ET0_T_S9_S8_ @540
    _ZSt14__copy_move_a2ILb0EPPSt10unique_ptrIN8TepeGolo4EtatESt14default_deleteIS2_EES7_ET1_T0_S9_S8_ @541
    _ZSt15allocate_sharedIN8TepeGolo8GameDataESaIS1_EJEESt10shared_ptrIT_ERKT0_DpOT1_ @542
    _ZSt16__deque_buf_sizey @543
    _ZSt18__allocate_guardedISaISt23_Sp_counted_ptr_inplaceIN8TepeGolo8GameDataESaIS2_ELN9__gnu_cxx12_Lock_policyE2EEEESt15__allocated_ptrIT_ERS9_ @544
    _ZSt18uninitialized_copyIN9__gnu_cxx17__normal_iteratorIPKN2sf6VertexESt6vectorIS3_SaIS3_EEEEPS3_ET0_T_SC_SB_ @545
    _ZSt19__iterator_categoryIPKcENSt15iterator_traitsIT_E17iterator_categoryERKS3_ @546
    _ZSt19__iterator_categoryIPcENSt15iterator_traitsIT_E17iterator_categoryERKS2_ @547
    _ZSt19piecewise_construct @548 DATA
    _ZSt22__copy_move_backward_aILb0EPPSt10unique_ptrIN8TepeGolo4EtatESt14default_deleteIS2_EES7_ET1_T0_S9_S8_ @549
    _ZSt22__uninitialized_copy_aIN9__gnu_cxx17__normal_iteratorIPKN2sf6VertexESt6vectorIS3_SaIS3_EEEEPS3_S3_ET0_T_SC_SB_RSaIT1_E @550
    _ZSt23__copy_move_backward_a2ILb0EPPSt10unique_ptrIN8TepeGolo4EtatESt14default_deleteIS2_EES7_ET1_T0_S9_S8_ @551
    _ZSt3getILy0EJPN8TepeGolo4EtatESt14default_deleteIS1_EEERKNSt13tuple_elementIXT_ESt5tupleIJDpT0_EEE4typeERKS9_ @552
    _ZSt3getILy0EJPN8TepeGolo4EtatESt14default_deleteIS1_EEERNSt13tuple_elementIXT_ESt5tupleIJDpT0_EEE4typeERS9_ @553
    _ZSt3getILy0EJRKNSt7__cxx1112basic_stringIcSt11char_traitsIcESaIcEEEEERNSt13tuple_elementIXT_ESt5tupleIJDpT0_EEE4typeERSC_ @554
    _ZSt3getILy1EJPN8TepeGolo4EtatESt14default_deleteIS1_EEERNSt13tuple_elementIXT_ESt5tupleIJDpT0_EEE4typeERS9_ @555
    _ZSt3maxIiERKT_S2_S2_ @556
    _ZSt3maxIyERKT_S2_S2_ @557
    _ZSt3minIiERKT_S2_S2_ @558
    _ZSt3minIyERKT_S2_S2_ @559
    _ZSt4copyIPPSt10unique_ptrIN8TepeGolo4EtatESt14default_deleteIS2_EES7_ET0_T_S9_S8_ @560
    _ZSt4moveIRKSaIN8TepeGolo8GameDataEEEONSt16remove_referenceIT_E4typeEOS6_ @561
    _ZSt4moveIRPN8TepeGolo4EtatEEONSt16remove_referenceIT_E4typeEOS5_ @562
    _ZSt4moveIRPN8TepeGolo8GameDataEEONSt16remove_referenceIT_E4typeEOS5_ @563
    _ZSt4moveIRSaIcEEONSt16remove_referenceIT_E4typeEOS3_ @564
    _ZSt4moveIRSt10shared_ptrIN8TepeGolo8GameDataEEEONSt16remove_referenceIT_E4typeEOS6_ @565
    _ZSt4moveIRSt10unique_ptrIN8TepeGolo4EtatESt14default_deleteIS2_EEEONSt16remove_referenceIT_E4typeEOS8_ @566
    _ZSt4moveIRSt12__shared_ptrIN8TepeGolo8GameDataELN9__gnu_cxx12_Lock_policyE2EEEONSt16remove_referenceIT_E4typeEOS8_ @567
    _ZSt4swapIPN8TepeGolo4EtatEENSt9enable_ifIXsrSt6__and_IJSt6__not_ISt15__is_tuple_likeIT_EESt21is_move_constructibleIS7_ESt18is_move_assignableIS7_EEE5valueEvE4typeERS7_SH_ @568
    _ZSt4swapIPN8TepeGolo8GameDataEENSt9enable_ifIXsrSt6__and_IJSt6__not_ISt15__is_tuple_likeIT_EESt21is_move_constructibleIS7_ESt18is_move_assignableIS7_EEE5valueEvE4typeERS7_SH_ @569
    _ZSt7forwardIRKN2sf6VertexEEOT_RNSt16remove_referenceIS4_E4typeE @570
    _ZSt7forwardIRKNSt7__cxx1112basic_stringIcSt11char_traitsIcESaIcEEEEOT_RNSt16remove_referenceIS8_E4typeE @571
    _ZSt7forwardIRKSt21piecewise_construct_tEOT_RNSt16remove_referenceIS3_E4typeE @572
    _ZSt7forwardIRPN8TepeGolo4EtatEEOT_RNSt16remove_referenceIS4_E4typeE @573
    _ZSt7forwardIRPSt13_Rb_tree_nodeISt4pairIKNSt7__cxx1112basic_stringIcSt11char_traitsIcESaIcEEEN2sf4FontEEEEOT_RNSt16remove_referenceISF_E4typeE @574
    _ZSt7forwardIRPSt13_Rb_tree_nodeISt4pairIKNSt7__cxx1112basic_stringIcSt11char_traitsIcESaIcEEEN2sf7TextureEEEEOT_RNSt16remove_referenceISF_E4typeE @575
    _ZSt7forwardIRPSt18_Rb_tree_node_baseEOT_RNSt16remove_referenceIS3_E4typeE @576
    _ZSt7forwardISt10unique_ptrIN8TepeGolo4EtatESt14default_deleteIS2_EEEOT_RNSt16remove_referenceIS6_E4typeE @577
    _ZSt7forwardISt14default_deleteIN8TepeGolo4EtatEEEOT_RNSt16remove_referenceIS4_E4typeE @578
    _ZSt7forwardISt5tupleIJEEEOT_RNSt16remove_referenceIS2_E4typeE @579
    _ZSt7forwardISt5tupleIJRKNSt7__cxx1112basic_stringIcSt11char_traitsIcESaIcEEEEEEOT_RNSt16remove_referenceISA_E4typeE @580
    _ZSt8_DestroyIPN2sf6VertexEEvT_S3_ @581
    _ZSt8_DestroyIPN2sf6VertexES1_EvT_S3_RSaIT0_E @582
    _ZSt8_DestroyIPSt10unique_ptrIN8TepeGolo4EtatESt14default_deleteIS2_EEEvT_S7_ @583
    _ZSt8_DestroyIPSt10unique_ptrIN8TepeGolo4EtatESt14default_deleteIS2_EES5_EvT_S7_RSaIT0_E @584
    _ZSt8_DestroyISt10unique_ptrIN8TepeGolo4EtatESt14default_deleteIS2_EEEvPT_ @585
    _ZSt8distanceIPKcENSt15iterator_traitsIT_E15difference_typeES3_S3_ @586
    _ZSt8distanceIPcENSt15iterator_traitsIT_E15difference_typeES2_S2_ @587
    _ZSt9addressofIKcEPT_RS1_ @588
    _ZSt9addressofIKjEPT_RS1_ @589
    _ZSt9addressofIcEPT_RS0_ @590
    _ZSteqISt10unique_ptrIN8TepeGolo4EtatESt14default_deleteIS2_EERS5_PS5_EbRKSt15_Deque_iteratorIT_T0_T1_ESE_ @591
    _ZStltIcSt11char_traitsIcESaIcEEbRKNSt7__cxx1112basic_stringIT_T0_T1_EESA_ @592
    _ZTIN2sf8DrawableE @593 DATA
    _ZTIN8TepeGolo10PauseStateE @594 DATA
    _ZTIN8TepeGolo11SplashStateE @595 DATA
    _ZTIN8TepeGolo13GameOverStateE @596 DATA
    _ZTIN8TepeGolo13MainMenuStateE @597 DATA
    _ZTIN8TepeGolo4EtatE @598 DATA
    _ZTIN8TepeGolo9GameStateE @599 DATA
    _ZTISt11_Mutex_baseILN9__gnu_cxx12_Lock_policyE2EE @600 DATA
    _ZTISt16_Sp_counted_baseILN9__gnu_cxx12_Lock_policyE2EE @601 DATA
    _ZTISt19_Sp_make_shared_tag @602 DATA
    _ZTISt23_Sp_counted_ptr_inplaceIN8TepeGolo8GameDataESaIS1_ELN9__gnu_cxx12_Lock_policyE2EE @603 DATA
    _ZTSN2sf8DrawableE @604 DATA
    _ZTSN8TepeGolo10PauseStateE @605 DATA
    _ZTSN8TepeGolo11SplashStateE @606 DATA
    _ZTSN8TepeGolo13GameOverStateE @607 DATA
    _ZTSN8TepeGolo13MainMenuStateE @608 DATA
    _ZTSN8TepeGolo4EtatE @609 DATA
    _ZTSN8TepeGolo9GameStateE @610 DATA
    _ZTSSt11_Mutex_baseILN9__gnu_cxx12_Lock_policyE2EE @611 DATA
    _ZTSSt16_Sp_counted_baseILN9__gnu_cxx12_Lock_policyE2EE @612 DATA
    _ZTSSt19_Sp_make_shared_tag @613 DATA
    _ZTSSt23_Sp_counted_ptr_inplaceIN8TepeGolo8GameDataESaIS1_ELN9__gnu_cxx12_Lock_policyE2EE @614 DATA
    _ZTVN8TepeGolo10PauseStateE @615 DATA
    _ZTVN8TepeGolo11SplashStateE @616 DATA
    _ZTVN8TepeGolo13GameOverStateE @617 DATA
    _ZTVN8TepeGolo13MainMenuStateE @618 DATA
    _ZTVN8TepeGolo4EtatE @619 DATA
    _ZTVN8TepeGolo9GameStateE @620 DATA
    _ZTVSt16_Sp_counted_baseILN9__gnu_cxx12_Lock_policyE2EE @621 DATA
    _ZTVSt23_Sp_counted_ptr_inplaceIN8TepeGolo8GameDataESaIS1_ELN9__gnu_cxx12_Lock_policyE2EE @622 DATA
    _ZThn8_N2sf4TextD1Ev @623
    _ZThn8_N2sf6SpriteD1Ev @624
    _ZdlPvS_ @625
    _ZnwyPv @626
    main @627
